target datalayout = "e-m:e-p270:32:32-p271:32:32-p272:64:64-i64:64-i128:128-f80:128-n8:16:32:64-S128"
target triple = "x86_64-unknown-linux-gnu"

%class.echo_tactic = type <{ %class.skip_tactic.base, [4 x i8], ptr, ptr, i8, [7 x i8] }>
%class.skip_tactic.base = type { %class.tactic.base }
%class.tactic.base = type <{ %"class.user_propagator::core", i32 }>
%"class.user_propagator::core" = type { ptr }
%class.tactic = type <{ %"class.user_propagator::core", i32, [4 x i8] }>

@_ZTV11skip_tactic = external unnamed_addr constant { [25 x ptr] }, align 8

; Function Attrs: mustprogress nounwind uwtable
define linkonce_odr hidden void @_ZN15user_propagator4coreC2Ev(ptr noundef nonnull align 8 dereferenceable(8) %this) unnamed_addr #5 comdat align 2 {
entry:
  %this.addr = alloca ptr, align 8
  store ptr %this, ptr %this.addr, align 8
  %this1 = load ptr, ptr %this.addr, align 8
  store ptr getelementptr inbounds ({ [14 x ptr] }, ptr @_ZTVN15user_propagator4coreE, i32 0, i32 0, i32 2), ptr %this1, align 8
  ret void
}

; Function Attrs: mustprogress nounwind uwtable
define linkonce_odr hidden void @_ZN6tacticC2Ev(ptr noundef nonnull align 8 dereferenceable(12) %this) unnamed_addr #5 comdat align 2 {
entry:
  %this.addr = alloca ptr, align 8
  store ptr %this, ptr %this.addr, align 8
  %this1 = load ptr, ptr %this.addr, align 8
  call void @_ZN15user_propagator4coreC2Ev(ptr noundef nonnull align 8 dereferenceable(8) %this1) #3
  store ptr getelementptr inbounds ({ [25 x ptr] }, ptr @_ZTV6tactic, i32 0, i32 0, i32 2), ptr %this1, align 8
  %m_ref_count = getelementptr inbounds %class.tactic, ptr %this1, i32 0, i32 1
  store i32 0, ptr %m_ref_count, align 8
  ret void
}

; Function Attrs: mustprogress uwtable
define linkonce_odr hidden void @_ZN11skip_tacticC2Ev(ptr noundef nonnull align 8 dereferenceable(12) %this) unnamed_addr #4 comdat align 2 {
entry:
  %this.addr = alloca ptr, align 8
  store ptr %this, ptr %this.addr, align 8
  %this1 = load ptr, ptr %this.addr, align 8
  call void @_ZN6tacticC2Ev(ptr noundef nonnull align 8 dereferenceable(12) %this1)
  store ptr getelementptr inbounds ({ [25 x ptr] }, ptr @_ZTV11skip_tactic, i32 0, i32 0, i32 2), ptr %this1, align 8
  ret void
}

; Function Attrs: mustprogress uwtable
define linkonce_odr hidden void @_ZN11echo_tacticC2ER11cmd_contextPKcb(ptr noundef nonnull align 8 dereferenceable(33) %this, ptr noundef nonnull align 8 dereferenceable(872) %ctx, ptr noundef %msg, i1 noundef zeroext %newline) unnamed_addr #4 comdat align 2 {
entry:
  %this.addr = alloca ptr, align 8
  %ctx.addr = alloca ptr, align 8
  %msg.addr = alloca ptr, align 8
  %newline.addr = alloca i8, align 1
  store ptr %this, ptr %this.addr, align 8
  store ptr %ctx, ptr %ctx.addr, align 8
  store ptr %msg, ptr %msg.addr, align 8
  %frombool = zext i1 %newline to i8
  store i8 %frombool, ptr %newline.addr, align 1
  %this1 = load ptr, ptr %this.addr, align 8
  call void @_ZN11skip_tacticC2Ev(ptr noundef nonnull align 8 dereferenceable(12) %this1)
  store ptr getelementptr inbounds ({ [25 x ptr] }, ptr @_ZTV11echo_tactic, i32 0, i32 0, i32 2), ptr %this1, align 8
  %m_ctx = getelementptr inbounds %class.echo_tactic, ptr %this1, i32 0, i32 2
  %0 = load ptr, ptr %ctx.addr, align 8
  store ptr %0, ptr %m_ctx, align 8
  %m_msg = getelementptr inbounds %class.echo_tactic, ptr %this1, i32 0, i32 3
  %1 = load ptr, ptr %msg.addr, align 8
  store ptr %1, ptr %m_msg, align 8
  %m_newline = getelementptr inbounds %class.echo_tactic, ptr %this1, i32 0, i32 4
  %2 = load i8, ptr %newline.addr, align 1
  %tobool = trunc i8 %2 to i1
  %frombool2 = zext i1 %tobool to i8
  store i8 %frombool2, ptr %m_newline, align 8
  ret void
}

; Function Attrs: mustprogress uwtable
define hidden noundef ptr @_Z14mk_echo_tacticR11cmd_contextPKcb(ptr noundef nonnull align 8 dereferenceable(872) %ctx, ptr noundef %msg, i1 noundef zeroext %newline) #4 {
entry:
  %ctx.addr = alloca ptr, align 8
  %msg.addr = alloca ptr, align 8
  %newline.addr = alloca i8, align 1
  store ptr %ctx, ptr %ctx.addr, align 8
  store ptr %msg, ptr %msg.addr, align 8
  %frombool = zext i1 %newline to i8
  store i8 %frombool, ptr %newline.addr, align 1
  %call = call noalias noundef ptr @_ZN6memory8allocateEm(i64 noundef 40)
  %0 = load ptr, ptr %ctx.addr, align 8
  %1 = load ptr, ptr %msg.addr, align 8
  %2 = load i8, ptr %newline.addr, align 1
  %tobool = trunc i8 %2 to i1
  call void @_ZN11echo_tacticC2ER11cmd_contextPKcb(ptr noundef nonnull align 8 dereferenceable(33) %call, ptr noundef nonnull align 8 dereferenceable(872) %0, ptr noundef %1, i1 noundef zeroext %tobool)
  ret ptr %call
}